target datalayout = "e-m:e-p270:32:32-p271:32:32-p272:64:64-i64:64-i128:128-f80:128-n8:16:32:64-S128"
target triple = "x86_64-pc-linux-gnu"

%struct.QArrayData = type { %"class.QtPrivate::RefCount", i32, i32, i64 }
%"class.QtPrivate::RefCount" = type { %class.QBasicAtomicInteger }
%class.QBasicAtomicInteger = type { %"struct.std::atomic.28" }
%"struct.std::atomic.28" = type { %"struct.std::__atomic_base.29" }
%"struct.std::__atomic_base.29" = type { i32 }
%class.MeshDocument = type { %class.QObject, %class.GLLogStream, %class.FilterScript, %"class.std::__cxx11::list", %"class.std::__cxx11::list.22", i32, i32, %class.QString, %class.QString, %class.MeshDocumentStateData, i8, ptr, ptr }
%class.QObject = type { ptr, %class.QScopedPointer }
%class.QScopedPointer = type { ptr }
%class.GLLogStream = type { %class.QObject, i32, %class.QList, %class.QMultiMap }
%class.QList = type { %union.anon }
%union.anon = type { %struct.QListData }
%struct.QListData = type { ptr }
%class.QMultiMap = type { %class.QMap }
%class.QMap = type { ptr }
%class.FilterScript = type { %class.QObject, %class.QList.16 }
%class.QList.16 = type { %union.anon.18 }
%union.anon.18 = type { %struct.QListData }
%"class.std::__cxx11::list" = type { %"class.std::__cxx11::_List_base" }
%"class.std::__cxx11::_List_base" = type { %"struct.std::__cxx11::_List_base<MeshModel, std::allocator<MeshModel>>::_List_impl" }
%"struct.std::__cxx11::_List_base<MeshModel, std::allocator<MeshModel>>::_List_impl" = type { %"struct.std::__detail::_List_node_header" }
%"struct.std::__detail::_List_node_header" = type { %"struct.std::__detail::_List_node_base", i64 }
%"struct.std::__detail::_List_node_base" = type { ptr, ptr }
%"class.std::__cxx11::list.22" = type { %"class.std::__cxx11::_List_base.23" }
%"class.std::__cxx11::_List_base.23" = type { %"struct.std::__cxx11::_List_base<RasterModel, std::allocator<RasterModel>>::_List_impl" }
%"struct.std::__cxx11::_List_base<RasterModel, std::allocator<RasterModel>>::_List_impl" = type { %"struct.std::__detail::_List_node_header" }
%class.QString = type { ptr }
%class.MeshDocumentStateData = type { %class.QReadWriteLock, %class.QMap.27 }
%class.QReadWriteLock = type { %class.QAtomicPointer }
%class.QAtomicPointer = type { %class.QBasicAtomicPointer }
%class.QBasicAtomicPointer = type { %"struct.std::atomic" }
%"struct.std::atomic" = type { %"struct.std::__atomic_base" }
%"struct.std::__atomic_base" = type { ptr }
%class.QMap.27 = type { ptr }
%"struct.std::_List_node" = type { %"struct.std::__detail::_List_node_base", %"struct.__gnu_cxx::__aligned_membuf.30" }
%"struct.__gnu_cxx::__aligned_membuf.30" = type { [168 x i8] }
%class.RasterModel = type { %class.MeshLabRenderRaster, i8, i32, %class.QString }
%class.MeshLabRenderRaster = type { %"class.vcg::Shot", %class.QList.33, ptr }
%"class.vcg::Shot" = type { %"class.vcg::Camera", %"class.vcg::Shot<float>::ReferenceFrame" }
%"class.vcg::Camera" = type { float, %"class.vcg::Point2", %"class.vcg::Point2.31", %"class.vcg::Point2.31", %"class.vcg::Point2.31", %"struct.std::array", i32 }
%"class.vcg::Point2" = type { [2 x i32] }
%"class.vcg::Point2.31" = type { [2 x float] }
%"struct.std::array" = type { [4 x float] }
%"class.vcg::Shot<float>::ReferenceFrame" = type { %"class.vcg::Matrix44", %"class.vcg::Point3" }
%"class.vcg::Matrix44" = type { %"struct.std::array.32" }
%"struct.std::array.32" = type { [16 x float] }
%"class.vcg::Point3" = type { [3 x float] }
%class.QList.33 = type { %union.anon.35 }
%union.anon.35 = type { %struct.QListData }
%"struct.std::_List_iterator.167" = type { ptr }
%"struct.std::_List_const_iterator.178" = type { ptr }

; Function Attrs: mustprogress nounwind uwtable
define linkonce_odr noundef i32 @_ZNSt13__atomic_baseIiEmmEv(ptr noundef nonnull align 4 dereferenceable(4) %0) #4 comdat align 2 {
  %2 = alloca ptr, align 8
  %3 = alloca i32, align 4
  %4 = alloca i32, align 4
  store ptr %0, ptr %2, align 8
  %5 = load ptr, ptr %2, align 8
  %6 = getelementptr inbounds %"struct.std::__atomic_base.29", ptr %5, i32 0, i32 0
  store i32 1, ptr %3, align 4
  %7 = load i32, ptr %3, align 4
  %8 = atomicrmw sub ptr %6, i32 %7 seq_cst, align 4
  %9 = sub i32 %8, %7
  store i32 %9, ptr %4, align 4
  %10 = load i32, ptr %4, align 4
  ret i32 %10
}

; Function Attrs: mustprogress nounwind uwtable
define linkonce_odr noundef i32 @_ZStanSt12memory_orderSt23__memory_order_modifier(i32 noundef %0, i32 noundef %1) #4 comdat {
  %3 = alloca i32, align 4
  %4 = alloca i32, align 4
  store i32 %0, ptr %3, align 4
  store i32 %1, ptr %4, align 4
  %5 = load i32, ptr %3, align 4
  %6 = load i32, ptr %4, align 4
  %7 = and i32 %5, %6
  ret i32 %7
}

; Function Attrs: mustprogress nounwind uwtable
define linkonce_odr noundef zeroext i1 @_ZN10QAtomicOpsIiE5derefIiEEbRSt6atomicIT_E(ptr noundef nonnull align 4 dereferenceable(4) %0) #4 comdat align 2 {
  %2 = alloca ptr, align 8
  store ptr %0, ptr %2, align 8
  %3 = load ptr, ptr %2, align 8
  %4 = call noundef i32 @_ZNSt13__atomic_baseIiEmmEv(ptr noundef nonnull align 4 dereferenceable(4) %3) #3
  %5 = icmp ne i32 %4, 0
  ret i1 %5
}

; Function Attrs: mustprogress nounwind uwtable
define linkonce_odr noundef i32 @_ZN10QAtomicOpsIiE11loadRelaxedIiEET_RKSt6atomicIS2_E(ptr noundef nonnull align 4 dereferenceable(4) %0) #4 comdat align 2 personality ptr @__gxx_personality_v0 {
  %2 = alloca ptr, align 8
  %3 = alloca i32, align 4
  %4 = alloca i32, align 4
  %5 = alloca i32, align 4
  %6 = alloca ptr, align 8
  store ptr %0, ptr %6, align 8
  %7 = load ptr, ptr %6, align 8
  store ptr %7, ptr %2, align 8
  store i32 0, ptr %3, align 4
  %8 = load ptr, ptr %2, align 8
  %9 = load i32, ptr %3, align 4
  %10 = invoke noundef i32 @_ZStanSt12memory_orderSt23__memory_order_modifier(i32 noundef %9, i32 noundef 65535)
          to label %11 unwind label %19

11:                                               ; preds = %1
  store i32 %10, ptr %4, align 4
  %12 = load i32, ptr %3, align 4
  switch i32 %12, label %13 [
    i32 1, label %15
    i32 2, label %15
    i32 5, label %17
  ]

13:                                               ; preds = %11
  %14 = load atomic i32, ptr %8 monotonic, align 4
  store i32 %14, ptr %5, align 4
  br label %22

15:                                               ; preds = %11, %11
  %16 = load atomic i32, ptr %8 acquire, align 4
  store i32 %16, ptr %5, align 4
  br label %22

17:                                               ; preds = %11
  %18 = load atomic i32, ptr %8 seq_cst, align 4
  store i32 %18, ptr %5, align 4
  br label %22

19:                                               ; preds = %1
  %20 = landingpad { ptr, i32 }
          catch ptr null
  %21 = extractvalue { ptr, i32 } %20, 0
  call void @__clang_call_terminate(ptr %21) #15
  unreachable

22:                                               ; preds = %17, %15, %13
  %23 = load i32, ptr %5, align 4
  ret i32 %23
}

; Function Attrs: mustprogress nounwind uwtable
define linkonce_odr noundef zeroext i1 @_ZN19QBasicAtomicIntegerIiE5derefEv(ptr noundef nonnull align 4 dereferenceable(4) %0) #4 comdat align 2 {
  %2 = alloca ptr, align 8
  store ptr %0, ptr %2, align 8
  %3 = load ptr, ptr %2, align 8
  %4 = getelementptr inbounds %class.QBasicAtomicInteger, ptr %3, i32 0, i32 0
  %5 = call noundef zeroext i1 @_ZN10QAtomicOpsIiE5derefIiEEbRSt6atomicIT_E(ptr noundef nonnull align 4 dereferenceable(4) %4) #3
  ret i1 %5
}

; Function Attrs: mustprogress nounwind uwtable
define linkonce_odr noundef i32 @_ZNK19QBasicAtomicIntegerIiE11loadRelaxedEv(ptr noundef nonnull align 4 dereferenceable(4) %0) #4 comdat align 2 {
  %2 = alloca ptr, align 8
  store ptr %0, ptr %2, align 8
  %3 = load ptr, ptr %2, align 8
  %4 = getelementptr inbounds %class.QBasicAtomicInteger, ptr %3, i32 0, i32 0
  %5 = call noundef i32 @_ZN10QAtomicOpsIiE11loadRelaxedIiEET_RKSt6atomicIS2_E(ptr noundef nonnull align 4 dereferenceable(4) %4) #3
  ret i32 %5
}

; Function Attrs: mustprogress nounwind uwtable
define linkonce_odr void @_ZN15QTypedArrayDataItE10deallocateEP10QArrayData(ptr noundef %0) #4 comdat align 2 {
  %2 = alloca ptr, align 8
  store ptr %0, ptr %2, align 8
  %3 = load ptr, ptr %2, align 8
  call void @_ZN10QArrayData10deallocateEPS_mm(ptr noundef %3, i64 noundef 2, i64 noundef 8) #3
  ret void
}

; Function Attrs: mustprogress nounwind uwtable
define linkonce_odr noundef zeroext i1 @_ZN9QtPrivate8RefCount5derefEv(ptr noundef nonnull align 4 dereferenceable(4) %0) #4 comdat align 2 {
  %2 = alloca i1, align 1
  %3 = alloca ptr, align 8
  %4 = alloca i32, align 4
  store ptr %0, ptr %3, align 8
  %5 = load ptr, ptr %3, align 8
  %6 = getelementptr inbounds %"class.QtPrivate::RefCount", ptr %5, i32 0, i32 0
  %7 = call noundef i32 @_ZNK19QBasicAtomicIntegerIiE11loadRelaxedEv(ptr noundef nonnull align 4 dereferenceable(4) %6) #3
  store i32 %7, ptr %4, align 4
  %8 = load i32, ptr %4, align 4
  %9 = icmp eq i32 %8, 0
  br i1 %9, label %10, label %11

10:                                               ; preds = %1
  store i1 false, ptr %2, align 1
  br label %18

11:                                               ; preds = %1
  %12 = load i32, ptr %4, align 4
  %13 = icmp eq i32 %12, -1
  br i1 %13, label %14, label %15

14:                                               ; preds = %11
  store i1 true, ptr %2, align 1
  br label %18

15:                                               ; preds = %11
  %16 = getelementptr inbounds %"class.QtPrivate::RefCount", ptr %5, i32 0, i32 0
  %17 = call noundef zeroext i1 @_ZN19QBasicAtomicIntegerIiE5derefEv(ptr noundef nonnull align 4 dereferenceable(4) %16) #3
  store i1 %17, ptr %2, align 1
  br label %18

18:                                               ; preds = %15, %14, %10
  %19 = load i1, ptr %2, align 1
  ret i1 %19
}

; Function Attrs: mustprogress nounwind uwtable
define linkonce_odr void @_ZN7QStringD2Ev(ptr noundef nonnull align 8 dereferenceable(8) %0) unnamed_addr #4 comdat align 2 personality ptr @__gxx_personality_v0 {
  %2 = alloca ptr, align 8
  store ptr %0, ptr %2, align 8
  %3 = load ptr, ptr %2, align 8
  %4 = getelementptr inbounds %class.QString, ptr %3, i32 0, i32 0
  %5 = load ptr, ptr %4, align 8
  %6 = getelementptr inbounds %struct.QArrayData, ptr %5, i32 0, i32 0
  %7 = call noundef zeroext i1 @_ZN9QtPrivate8RefCount5derefEv(ptr noundef nonnull align 4 dereferenceable(4) %6) #3
  br i1 %7, label %12, label %8

8:                                                ; preds = %1
  %9 = getelementptr inbounds %class.QString, ptr %3, i32 0, i32 0
  %10 = load ptr, ptr %9, align 8
  invoke void @_ZN15QTypedArrayDataItE10deallocateEP10QArrayData(ptr noundef %10)
          to label %11 unwind label %13

11:                                               ; preds = %8
  br label %12

12:                                               ; preds = %11, %1
  ret void

13:                                               ; preds = %8
  %14 = landingpad { ptr, i32 }
          catch ptr null
  %15 = extractvalue { ptr, i32 } %14, 0
  call void @__clang_call_terminate(ptr %15) #15
  unreachable
}

; Function Attrs: mustprogress nounwind uwtable
define linkonce_odr void @_ZNSt15__new_allocatorISt10_List_nodeI11RasterModelEE10deallocateEPS2_m(ptr noundef nonnull align 1 dereferenceable(1) %0, ptr noundef %1, i64 noundef %2) #4 comdat align 2 {
  %4 = alloca ptr, align 8
  %5 = alloca ptr, align 8
  %6 = alloca i64, align 8
  store ptr %0, ptr %4, align 8
  store ptr %1, ptr %5, align 8
  store i64 %2, ptr %6, align 8
  %7 = load ptr, ptr %5, align 8
  call void @_ZdlPv(ptr noundef %7) #18
  ret void
}

; Function Attrs: mustprogress nounwind uwtable
define linkonce_odr void @_ZN11RasterModelD2Ev(ptr noundef nonnull align 8 dereferenceable(168) %0) unnamed_addr #4 comdat align 2 {
  %2 = alloca ptr, align 8
  store ptr %0, ptr %2, align 8
  %3 = load ptr, ptr %2, align 8
  %4 = getelementptr inbounds %class.RasterModel, ptr %3, i32 0, i32 3
  call void @_ZN7QStringD2Ev(ptr noundef nonnull align 8 dereferenceable(8) %4) #3
  call void @_ZN19MeshLabRenderRasterD2Ev(ptr noundef nonnull align 8 dereferenceable(152) %3) #3
  ret void
}

; Function Attrs: mustprogress nounwind uwtable
define linkonce_odr noundef ptr @_ZN9__gnu_cxx16__aligned_membufI11RasterModelE7_M_addrEv(ptr noundef nonnull align 8 dereferenceable(168) %0) #4 comdat align 2 {
  %2 = alloca ptr, align 8
  store ptr %0, ptr %2, align 8
  %3 = load ptr, ptr %2, align 8
  %4 = getelementptr inbounds %"struct.__gnu_cxx::__aligned_membuf.30", ptr %3, i32 0, i32 0
  ret ptr %4
}

; Function Attrs: mustprogress uwtable
define linkonce_odr void @_ZNSt16allocator_traitsISaISt10_List_nodeI11RasterModelEEE10deallocateERS3_PS2_m(ptr noundef nonnull align 1 dereferenceable(1) %0, ptr noundef %1, i64 noundef %2) #5 comdat align 2 {
  %4 = alloca ptr, align 8
  %5 = alloca ptr, align 8
  %6 = alloca i64, align 8
  store ptr %0, ptr %4, align 8
  store ptr %1, ptr %5, align 8
  store i64 %2, ptr %6, align 8
  %7 = load ptr, ptr %4, align 8
  %8 = load ptr, ptr %5, align 8
  %9 = load i64, ptr %6, align 8
  call void @_ZNSt15__new_allocatorISt10_List_nodeI11RasterModelEE10deallocateEPS2_m(ptr noundef nonnull align 1 dereferenceable(1) %7, ptr noundef %8, i64 noundef %9)
  ret void
}

; Function Attrs: mustprogress nounwind uwtable
define linkonce_odr void @_ZNSt15__new_allocatorISt10_List_nodeI11RasterModelEE7destroyIS1_EEvPT_(ptr noundef nonnull align 1 dereferenceable(1) %0, ptr noundef %1) #4 comdat align 2 {
  %3 = alloca ptr, align 8
  %4 = alloca ptr, align 8
  store ptr %0, ptr %3, align 8
  store ptr %1, ptr %4, align 8
  %5 = load ptr, ptr %4, align 8
  call void @_ZN11RasterModelD2Ev(ptr noundef nonnull align 8 dereferenceable(168) %5) #3
  ret void
}

; Function Attrs: mustprogress nounwind uwtable
define linkonce_odr noundef ptr @_ZN9__gnu_cxx16__aligned_membufI11RasterModelE6_M_ptrEv(ptr noundef nonnull align 8 dereferenceable(168) %0) #4 comdat align 2 {
  %2 = alloca ptr, align 8
  store ptr %0, ptr %2, align 8
  %3 = load ptr, ptr %2, align 8
  %4 = call noundef ptr @_ZN9__gnu_cxx16__aligned_membufI11RasterModelE7_M_addrEv(ptr noundef nonnull align 8 dereferenceable(168) %3) #3
  ret ptr %4
}

; Function Attrs: noreturn nounwind uwtable
define linkonce_odr hidden void @__clang_call_terminate(ptr noundef %0) #9 comdat {
  %2 = call ptr @__cxa_begin_catch(ptr %0) #3
  call void @_ZSt9terminatev() #15
  unreachable
}

; Function Attrs: mustprogress nounwind uwtable
define linkonce_odr void @_ZNSt7__cxx1110_List_baseI11RasterModelSaIS1_EE11_M_put_nodeEPSt10_List_nodeIS1_E(ptr noundef nonnull align 8 dereferenceable(24) %0, ptr noundef %1) #4 comdat align 2 personality ptr @__gxx_personality_v0 {
  %3 = alloca ptr, align 8
  %4 = alloca ptr, align 8
  store ptr %0, ptr %3, align 8
  store ptr %1, ptr %4, align 8
  %5 = load ptr, ptr %3, align 8
  %6 = getelementptr inbounds %"class.std::__cxx11::_List_base.23", ptr %5, i32 0, i32 0
  %7 = load ptr, ptr %4, align 8
  invoke void @_ZNSt16allocator_traitsISaISt10_List_nodeI11RasterModelEEE10deallocateERS3_PS2_m(ptr noundef nonnull align 1 dereferenceable(1) %6, ptr noundef %7, i64 noundef 1)
          to label %8 unwind label %9

8:                                                ; preds = %2
  ret void

9:                                                ; preds = %2
  %10 = landingpad { ptr, i32 }
          catch ptr null
  %11 = extractvalue { ptr, i32 } %10, 0
  call void @__clang_call_terminate(ptr %11) #15
  unreachable
}

; Function Attrs: mustprogress nounwind uwtable
define linkonce_odr void @_ZNSt16allocator_traitsISaISt10_List_nodeI11RasterModelEEE7destroyIS1_EEvRS3_PT_(ptr noundef nonnull align 1 dereferenceable(1) %0, ptr noundef %1) #4 comdat align 2 {
  %3 = alloca ptr, align 8
  %4 = alloca ptr, align 8
  store ptr %0, ptr %3, align 8
  store ptr %1, ptr %4, align 8
  %5 = load ptr, ptr %3, align 8
  %6 = load ptr, ptr %4, align 8
  call void @_ZNSt15__new_allocatorISt10_List_nodeI11RasterModelEE7destroyIS1_EEvPT_(ptr noundef nonnull align 1 dereferenceable(1) %5, ptr noundef %6) #3
  ret void
}

; Function Attrs: mustprogress nounwind uwtable
define linkonce_odr noundef ptr @_ZNSt10_List_nodeI11RasterModelE9_M_valptrEv(ptr noundef nonnull align 8 dereferenceable(184) %0) #4 comdat align 2 {
  %2 = alloca ptr, align 8
  store ptr %0, ptr %2, align 8
  %3 = load ptr, ptr %2, align 8
  %4 = getelementptr inbounds %"struct.std::_List_node", ptr %3, i32 0, i32 1
  %5 = call noundef ptr @_ZN9__gnu_cxx16__aligned_membufI11RasterModelE6_M_ptrEv(ptr noundef nonnull align 8 dereferenceable(168) %4) #3
  ret ptr %5
}

; Function Attrs: mustprogress nounwind uwtable
define linkonce_odr noundef nonnull align 1 dereferenceable(1) ptr @_ZNSt7__cxx1110_List_baseI11RasterModelSaIS1_EE21_M_get_Node_allocatorEv(ptr noundef nonnull align 8 dereferenceable(24) %0) #4 comdat align 2 {
  %2 = alloca ptr, align 8
  store ptr %0, ptr %2, align 8
  %3 = load ptr, ptr %2, align 8
  %4 = getelementptr inbounds %"class.std::__cxx11::_List_base.23", ptr %3, i32 0, i32 0
  ret ptr %4
}

; Function Attrs: mustprogress nounwind uwtable
define linkonce_odr void @_ZNSt7__cxx1110_List_baseI11RasterModelSaIS1_EE11_M_dec_sizeEm(ptr noundef nonnull align 8 dereferenceable(24) %0, i64 noundef %1) #4 comdat align 2 {
  %3 = alloca ptr, align 8
  %4 = alloca i64, align 8
  store ptr %0, ptr %3, align 8
  store i64 %1, ptr %4, align 8
  %5 = load ptr, ptr %3, align 8
  %6 = load i64, ptr %4, align 8
  %7 = getelementptr inbounds %"class.std::__cxx11::_List_base.23", ptr %5, i32 0, i32 0
  %8 = getelementptr inbounds %"struct.std::__cxx11::_List_base<RasterModel, std::allocator<RasterModel>>::_List_impl", ptr %7, i32 0, i32 0
  %9 = getelementptr inbounds %"struct.std::__detail::_List_node_header", ptr %8, i32 0, i32 1
  %10 = load i64, ptr %9, align 8
  %11 = sub i64 %10, %6
  store i64 %11, ptr %9, align 8
  ret void
}

; Function Attrs: mustprogress nounwind uwtable
define linkonce_odr void @_ZNSt7__cxx114listI11RasterModelSaIS1_EE8_M_eraseESt14_List_iteratorIS1_E(ptr noundef nonnull align 8 dereferenceable(24) %0, ptr %1) #4 comdat align 2 personality ptr @__gxx_personality_v0 {
  %3 = alloca %"struct.std::_List_iterator.167", align 8
  %4 = alloca ptr, align 8
  %5 = alloca ptr, align 8
  %6 = getelementptr inbounds %"struct.std::_List_iterator.167", ptr %3, i32 0, i32 0
  store ptr %1, ptr %6, align 8
  store ptr %0, ptr %4, align 8
  %7 = load ptr, ptr %4, align 8
  invoke void @_ZNSt7__cxx1110_List_baseI11RasterModelSaIS1_EE11_M_dec_sizeEm(ptr noundef nonnull align 8 dereferenceable(24) %7, i64 noundef 1)
          to label %8 unwind label %17

8:                                                ; preds = %2
  %9 = getelementptr inbounds %"struct.std::_List_iterator.167", ptr %3, i32 0, i32 0
  %10 = load ptr, ptr %9, align 8
  call void @_ZNSt8__detail15_List_node_base9_M_unhookEv(ptr noundef nonnull align 8 dereferenceable(16) %10) #3
  %11 = getelementptr inbounds %"struct.std::_List_iterator.167", ptr %3, i32 0, i32 0
  %12 = load ptr, ptr %11, align 8
  store ptr %12, ptr %5, align 8
  %13 = call noundef nonnull align 1 dereferenceable(1) ptr @_ZNSt7__cxx1110_List_baseI11RasterModelSaIS1_EE21_M_get_Node_allocatorEv(ptr noundef nonnull align 8 dereferenceable(24) %7) #3
  %14 = load ptr, ptr %5, align 8
  %15 = call noundef ptr @_ZNSt10_List_nodeI11RasterModelE9_M_valptrEv(ptr noundef nonnull align 8 dereferenceable(184) %14)
  call void @_ZNSt16allocator_traitsISaISt10_List_nodeI11RasterModelEEE7destroyIS1_EEvRS3_PT_(ptr noundef nonnull align 1 dereferenceable(1) %13, ptr noundef %15) #3
  %16 = load ptr, ptr %5, align 8
  call void @_ZNSt7__cxx1110_List_baseI11RasterModelSaIS1_EE11_M_put_nodeEPSt10_List_nodeIS1_E(ptr noundef nonnull align 8 dereferenceable(24) %7, ptr noundef %16) #3
  ret void

17:                                               ; preds = %2
  %18 = landingpad { ptr, i32 }
          catch ptr null
  %19 = extractvalue { ptr, i32 } %18, 0
  call void @__clang_call_terminate(ptr %19) #15
  unreachable
}

; Function Attrs: mustprogress nounwind uwtable
define linkonce_odr ptr @_ZNKSt20_List_const_iteratorI11RasterModelE13_M_const_castEv(ptr noundef nonnull align 8 dereferenceable(8) %0) #4 comdat align 2 {
  %2 = alloca %"struct.std::_List_iterator.167", align 8
  %3 = alloca ptr, align 8
  store ptr %0, ptr %3, align 8
  %4 = load ptr, ptr %3, align 8
  %5 = getelementptr inbounds %"struct.std::_List_const_iterator.178", ptr %4, i32 0, i32 0
  %6 = load ptr, ptr %5, align 8
  call void @_ZNSt14_List_iteratorI11RasterModelEC2EPNSt8__detail15_List_node_baseE(ptr noundef nonnull align 8 dereferenceable(8) %2, ptr noundef %6) #3
  %7 = getelementptr inbounds %"struct.std::_List_iterator.167", ptr %2, i32 0, i32 0
  %8 = load ptr, ptr %7, align 8
  ret ptr %8
}

; Function Attrs: mustprogress nounwind uwtable
define linkonce_odr void @_ZNSt14_List_iteratorI11RasterModelEC2EPNSt8__detail15_List_node_baseE(ptr noundef nonnull align 8 dereferenceable(8) %0, ptr noundef %1) unnamed_addr #4 comdat align 2 {
  %3 = alloca ptr, align 8
  %4 = alloca ptr, align 8
  store ptr %0, ptr %3, align 8
  store ptr %1, ptr %4, align 8
  %5 = load ptr, ptr %3, align 8
  %6 = getelementptr inbounds %"struct.std::_List_iterator.167", ptr %5, i32 0, i32 0
  %7 = load ptr, ptr %4, align 8
  store ptr %7, ptr %6, align 8
  ret void
}

; Function Attrs: mustprogress nounwind uwtable
define linkonce_odr ptr @_ZNSt7__cxx114listI11RasterModelSaIS1_EE5eraseESt20_List_const_iteratorIS1_E(ptr noundef nonnull align 8 dereferenceable(24) %0, ptr %1) #4 comdat align 2 {
  %3 = alloca %"struct.std::_List_iterator.167", align 8
  %4 = alloca %"struct.std::_List_const_iterator.178", align 8
  %5 = alloca ptr, align 8
  %6 = alloca %"struct.std::_List_iterator.167", align 8
  %7 = getelementptr inbounds %"struct.std::_List_const_iterator.178", ptr %4, i32 0, i32 0
  store ptr %1, ptr %7, align 8
  store ptr %0, ptr %5, align 8
  %8 = load ptr, ptr %5, align 8
  %9 = getelementptr inbounds %"struct.std::_List_const_iterator.178", ptr %4, i32 0, i32 0
  %10 = load ptr, ptr %9, align 8
  %11 = getelementptr inbounds %"struct.std::__detail::_List_node_base", ptr %10, i32 0, i32 0
  %12 = load ptr, ptr %11, align 8
  call void @_ZNSt14_List_iteratorI11RasterModelEC2EPNSt8__detail15_List_node_baseE(ptr noundef nonnull align 8 dereferenceable(8) %3, ptr noundef %12) #3
  %13 = call ptr @_ZNKSt20_List_const_iteratorI11RasterModelE13_M_const_castEv(ptr noundef nonnull align 8 dereferenceable(8) %4) #3
  %14 = getelementptr inbounds %"struct.std::_List_iterator.167", ptr %6, i32 0, i32 0
  store ptr %13, ptr %14, align 8
  %15 = getelementptr inbounds %"struct.std::_List_iterator.167", ptr %6, i32 0, i32 0
  %16 = load ptr, ptr %15, align 8
  call void @_ZNSt7__cxx114listI11RasterModelSaIS1_EE8_M_eraseESt14_List_iteratorIS1_E(ptr noundef nonnull align 8 dereferenceable(24) %8, ptr %16) #3
  %17 = getelementptr inbounds %"struct.std::_List_iterator.167", ptr %3, i32 0, i32 0
  %18 = load ptr, ptr %17, align 8
  ret ptr %18
}

; Function Attrs: mustprogress nounwind uwtable
define linkonce_odr void @_ZNSt20_List_const_iteratorI11RasterModelEC2ERKSt14_List_iteratorIS0_E(ptr noundef nonnull align 8 dereferenceable(8) %0, ptr noundef nonnull align 8 dereferenceable(8) %1) unnamed_addr #4 comdat align 2 {
  %3 = alloca ptr, align 8
  %4 = alloca ptr, align 8
  store ptr %0, ptr %3, align 8
  store ptr %1, ptr %4, align 8
  %5 = load ptr, ptr %3, align 8
  %6 = getelementptr inbounds %"struct.std::_List_const_iterator.178", ptr %5, i32 0, i32 0
  %7 = load ptr, ptr %4, align 8
  %8 = getelementptr inbounds %"struct.std::_List_iterator.167", ptr %7, i32 0, i32 0
  %9 = load ptr, ptr %8, align 8
  store ptr %9, ptr %6, align 8
  ret void
}

; Function Attrs: mustprogress nounwind uwtable
define ptr @_ZN12MeshDocument11eraseRasterESt14_List_iteratorI11RasterModelE(ptr noundef nonnull align 8 dereferenceable(192) %0, ptr %1) #4 align 2 {
  %3 = alloca %"struct.std::_List_iterator.167", align 8
  %4 = alloca %"struct.std::_List_iterator.167", align 8
  %5 = alloca ptr, align 8
  %6 = alloca %"struct.std::_List_const_iterator.178", align 8
  %7 = getelementptr inbounds %"struct.std::_List_iterator.167", ptr %4, i32 0, i32 0
  store ptr %1, ptr %7, align 8
  store ptr %0, ptr %5, align 8
  %8 = load ptr, ptr %5, align 8
  %9 = getelementptr inbounds %class.MeshDocument, ptr %8, i32 0, i32 4
  call void @_ZNSt20_List_const_iteratorI11RasterModelEC2ERKSt14_List_iteratorIS0_E(ptr noundef nonnull align 8 dereferenceable(8) %6, ptr noundef nonnull align 8 dereferenceable(8) %4) #3
  %10 = getelementptr inbounds %"struct.std::_List_const_iterator.178", ptr %6, i32 0, i32 0
  %11 = load ptr, ptr %10, align 8
  %12 = call ptr @_ZNSt7__cxx114listI11RasterModelSaIS1_EE5eraseESt20_List_const_iteratorIS1_E(ptr noundef nonnull align 8 dereferenceable(24) %9, ptr %11) #3
  %13 = getelementptr inbounds %"struct.std::_List_iterator.167", ptr %3, i32 0, i32 0
  store ptr %12, ptr %13, align 8
  %14 = getelementptr inbounds %"struct.std::_List_iterator.167", ptr %3, i32 0, i32 0
  %15 = load ptr, ptr %14, align 8
  ret ptr %15
}