; Function Attrs: mustprogress nounwind uwtable
define ptr @_ZN12MeshDocument11eraseRasterESt14_List_iteratorI11RasterModelE(ptr nocapture noundef nonnull align 8 dereferenceable(192) %0, ptr nonnull %1) local_unnamed_addr #4 align 2 personality ptr @__gxx_personality_v0 {
  %3 = load ptr, ptr %1, align 8
  %4 = getelementptr inbounds i8, ptr %0, i64 120
  %5 = load i64, ptr %4, align 8
  %6 = add i64 %5, -1
  store i64 %6, ptr %4, align 8
  tail call void @_ZNSt8__detail15_List_node_base9_M_unhookEv(ptr noundef nonnull align 8 dereferenceable(16) %1) #28
  %7 = getelementptr inbounds i8, ptr %1, i64 176
  %8 = load ptr, ptr %7, align 8
  %9 = load atomic i32, ptr %8 monotonic, align 4
  switch i32 %9, label %_ZN9QtPrivate8RefCount5derefEv.exit.i.i.i.i.i.i [
    i32 0, label %_ZN9QtPrivate8RefCount5derefEv.exit.thread2.i.i.i.i.i.i
    i32 -1, label %_ZNSt7__cxx114listI11RasterModelSaIS1_EE5eraseESt20_List_const_iteratorIS1_E.exit
  ]

_ZN9QtPrivate8RefCount5derefEv.exit.i.i.i.i.i.i:  ; preds = %2
  %10 = atomicrmw sub ptr %8, i32 1 seq_cst, align 4
  %.not.i.i.i.i.i.i = icmp eq i32 %10, 1
  br i1 %.not.i.i.i.i.i.i, label %_ZN9QtPrivate8RefCount5derefEv.exit._ZN9QtPrivate8RefCount5derefEv.exit.thread2_crit_edge.i.i.i.i.i.i, label %_ZNSt7__cxx114listI11RasterModelSaIS1_EE5eraseESt20_List_const_iteratorIS1_E.exit

_ZN9QtPrivate8RefCount5derefEv.exit._ZN9QtPrivate8RefCount5derefEv.exit.thread2_crit_edge.i.i.i.i.i.i: ; preds = %_ZN9QtPrivate8RefCount5derefEv.exit.i.i.i.i.i.i
  %.pre.i.i.i.i.i.i = load ptr, ptr %7, align 8
  br label %_ZN9QtPrivate8RefCount5derefEv.exit.thread2.i.i.i.i.i.i

_ZN9QtPrivate8RefCount5derefEv.exit.thread2.i.i.i.i.i.i: ; preds = %_ZN9QtPrivate8RefCount5derefEv.exit._ZN9QtPrivate8RefCount5derefEv.exit.thread2_crit_edge.i.i.i.i.i.i, %2
  %11 = phi ptr [ %.pre.i.i.i.i.i.i, %_ZN9QtPrivate8RefCount5derefEv.exit._ZN9QtPrivate8RefCount5derefEv.exit.thread2_crit_edge.i.i.i.i.i.i ], [ %8, %2 ]
  tail call void @_ZN10QArrayData10deallocateEPS_mm(ptr noundef %11, i64 noundef 2, i64 noundef 8) #28
  br label %_ZNSt7__cxx114listI11RasterModelSaIS1_EE5eraseESt20_List_const_iteratorIS1_E.exit

_ZNSt7__cxx114listI11RasterModelSaIS1_EE5eraseESt20_List_const_iteratorIS1_E.exit: ; preds = %2, %_ZN9QtPrivate8RefCount5derefEv.exit.i.i.i.i.i.i, %_ZN9QtPrivate8RefCount5derefEv.exit.thread2.i.i.i.i.i.i
  %12 = getelementptr inbounds i8, ptr %1, i64 16
  tail call void @_ZN19MeshLabRenderRasterD2Ev(ptr noundef nonnull align 8 dereferenceable(152) %12) #28
  tail call void @_ZdlPv(ptr noundef nonnull %1) #27
  ret ptr %3
}